target datalayout = "e-m:e-p270:32:32-p271:32:32-p272:64:64-i64:64-i128:128-f80:128-n8:16:32:64-S128"
target triple = "x86_64-pc-linux-gnu"

%struct.opj_tgt_tree = type { i32, i32, i32, ptr, i32 }
%struct.opj_tgt_node = type { ptr, i32, i32, i32 }

; Function Attrs: nounwind uwtable
define hidden void @opj_tgt_reset(ptr noundef %0) #0 {
  %2 = alloca ptr, align 8
  %3 = alloca i32, align 4
  %4 = alloca ptr, align 8
  %5 = alloca i32, align 4
  store ptr %0, ptr %2, align 8, !tbaa !12
  call void @llvm.lifetime.start.p0(i64 4, ptr %3) #4
  call void @llvm.lifetime.start.p0(i64 8, ptr %4) #4
  store ptr null, ptr %4, align 8, !tbaa !10
  %6 = load ptr, ptr %2, align 8, !tbaa !12
  %7 = icmp ne ptr %6, null
  br i1 %7, label %9, label %8

8:                                                ; preds = %1
  store i32 1, ptr %5, align 4
  br label %32

9:                                                ; preds = %1
  %10 = load ptr, ptr %2, align 8, !tbaa !12
  %11 = getelementptr inbounds nuw %struct.opj_tgt_tree, ptr %10, i32 0, i32 3
  %12 = load ptr, ptr %11, align 8, !tbaa !20
  store ptr %12, ptr %4, align 8, !tbaa !10
  store i32 0, ptr %3, align 4, !tbaa !3
  br label %13

13:                                               ; preds = %28, %9
  %14 = load i32, ptr %3, align 4, !tbaa !3
  %15 = load ptr, ptr %2, align 8, !tbaa !12
  %16 = getelementptr inbounds nuw %struct.opj_tgt_tree, ptr %15, i32 0, i32 2
  %17 = load i32, ptr %16, align 8, !tbaa !17
  %18 = icmp ult i32 %14, %17
  br i1 %18, label %19, label %31

19:                                               ; preds = %13
  %20 = load ptr, ptr %4, align 8, !tbaa !10
  %21 = getelementptr inbounds nuw %struct.opj_tgt_node, ptr %20, i32 0, i32 1
  store i32 999, ptr %21, align 8, !tbaa !27
  %22 = load ptr, ptr %4, align 8, !tbaa !10
  %23 = getelementptr inbounds nuw %struct.opj_tgt_node, ptr %22, i32 0, i32 2
  store i32 0, ptr %23, align 4, !tbaa !28
  %24 = load ptr, ptr %4, align 8, !tbaa !10
  %25 = getelementptr inbounds nuw %struct.opj_tgt_node, ptr %24, i32 0, i32 3
  store i32 0, ptr %25, align 8, !tbaa !29
  %26 = load ptr, ptr %4, align 8, !tbaa !10
  %27 = getelementptr inbounds nuw %struct.opj_tgt_node, ptr %26, i32 1
  store ptr %27, ptr %4, align 8, !tbaa !10
  br label %28

28:                                               ; preds = %19
  %29 = load i32, ptr %3, align 4, !tbaa !3
  %30 = add i32 %29, 1
  store i32 %30, ptr %3, align 4, !tbaa !3
  br label %13, !llvm.loop !30

31:                                               ; preds = %13
  store i32 0, ptr %5, align 4
  br label %32

32:                                               ; preds = %31, %8
  call void @llvm.lifetime.end.p0(i64 8, ptr %4) #4
  call void @llvm.lifetime.end.p0(i64 4, ptr %3) #4
  %33 = load i32, ptr %5, align 4
  switch i32 %33, label %35 [
    i32 0, label %34
    i32 1, label %34
  ]

34:                                               ; preds = %32, %32
  ret void

35:                                               ; preds = %32
  unreachable
}