; Function Attrs: nofree norecurse nosync nounwind memory(write, argmem: readwrite, inaccessiblemem: none) uwtable
define hidden void @opj_tgt_reset(ptr noundef readonly %0) local_unnamed_addr #3 {
  %.not = icmp eq ptr %0, null
  br i1 %.not, label %.loopexit, label %2

2:                                                ; preds = %1
  %3 = getelementptr inbounds nuw i8, ptr %0, i64 8
  %4 = load i32, ptr %3, align 8, !tbaa !14
  %.not12 = icmp eq i32 %4, 0
  br i1 %.not12, label %.loopexit, label %.lr.ph.preheader

.lr.ph.preheader:                                 ; preds = %2
  %5 = getelementptr inbounds nuw i8, ptr %0, i64 16
  %6 = load ptr, ptr %5, align 8, !tbaa !15
  br label %.lr.ph

.lr.ph:                                           ; preds = %.lr.ph.preheader, %.lr.ph
  %.011 = phi ptr [ %10, %.lr.ph ], [ %6, %.lr.ph.preheader ]
  %.0810 = phi i32 [ %11, %.lr.ph ], [ 0, %.lr.ph.preheader ]
  %7 = getelementptr inbounds nuw i8, ptr %.011, i64 8
  store i32 999, ptr %7, align 8, !tbaa !22
  %8 = getelementptr inbounds nuw i8, ptr %.011, i64 12
  store i32 0, ptr %8, align 4, !tbaa !23
  %9 = getelementptr inbounds nuw i8, ptr %.011, i64 16
  store i32 0, ptr %9, align 8, !tbaa !24
  %10 = getelementptr inbounds nuw i8, ptr %.011, i64 24
  %11 = add nuw i32 %.0810, 1
  %exitcond.not = icmp eq i32 %11, %4
  br i1 %exitcond.not, label %.loopexit, label %.lr.ph, !llvm.loop !25

.loopexit:                                        ; preds = %.lr.ph, %2, %1
  ret void
}